; Function Attrs: mustprogress uwtable
define noundef ptr @ImfCopyHeader(ptr noundef %0) local_unnamed_addr #8 personality ptr @__gxx_personality_v0 {
  %2 = invoke noalias noundef nonnull dereferenceable(56) ptr @_Znwm(i64 noundef 56) #23
          to label %3 unwind label %4

3:                                                ; preds = %1
  invoke void @_ZN7Imf_3_46HeaderC1ERKS0_(ptr noundef nonnull align 8 dereferenceable(49) %2, ptr noundef nonnull align 8 dereferenceable(49) %0)
          to label %18 unwind label %6

4:                                                ; preds = %1
  %5 = landingpad { ptr, i32 }
          catch ptr @_ZTISt9exception
  br label %8

6:                                                ; preds = %3
  %7 = landingpad { ptr, i32 }
          cleanup
          catch ptr @_ZTISt9exception
  tail call void @_ZdlPvm(ptr noundef nonnull %2, i64 noundef 56) #25
  br label %8

8:                                                ; preds = %6, %4
  %.pn = phi { ptr, i32 } [ %7, %6 ], [ %5, %4 ]
  %.06 = extractvalue { ptr, i32 } %.pn, 1
  %9 = tail call i32 @llvm.eh.typeid.for.p0(ptr nonnull @_ZTISt9exception) #24
  %10 = icmp eq i32 %.06, %9
  br i1 %10, label %11, label %19

11:                                               ; preds = %8
  %.07 = extractvalue { ptr, i32 } %.pn, 0
  %12 = tail call ptr @__cxa_begin_catch(ptr %.07) #24
  %13 = load ptr, ptr %12, align 8, !tbaa !22
  %14 = getelementptr inbounds nuw i8, ptr %13, i64 16
  %15 = load ptr, ptr %14, align 8
  %16 = tail call noundef ptr %15(ptr noundef nonnull align 8 dereferenceable(8) %12) #24
  %17 = tail call ptr @strncpy(ptr noundef nonnull dereferenceable(1) @_ZN12_GLOBAL__N_112errorMessageE, ptr noundef nonnull dereferenceable(1) %16, i64 noundef 1023) #24
  store i8 0, ptr getelementptr inbounds nuw (i8, ptr @_ZN12_GLOBAL__N_112errorMessageE, i64 1023), align 1, !tbaa !15
  tail call void @__cxa_end_catch()
  br label %18

18:                                               ; preds = %3, %11
  %.0 = phi ptr [ null, %11 ], [ %2, %3 ]
  ret ptr %.0

19:                                               ; preds = %8
  resume { ptr, i32 } %.pn
}